target datalayout = "e-m:e-p270:32:32-p271:32:32-p272:64:64-i64:64-i128:128-f80:128-n8:16:32:64-S128"
target triple = "x86_64-pc-linux-gnu"

%struct.Aig_Obj_t_ = type { %union.anon, ptr, ptr, i64, i32, i32, %union.anon.0 }
%union.anon = type { ptr }
%union.anon.0 = type { ptr }
%struct.Fra_Man_t_ = type { ptr, ptr, ptr, i32, ptr, i32, ptr, ptr, ptr, i32, ptr, ptr, ptr, ptr, i32, ptr, i64, i64, ptr, ptr, i32, ptr, i32, i32, i32, i32, i32, i32, i32, i32, i32, i32, i32, i32, i32, i32, i32, i32, i32, i32, i32, i64, i64, i64, i64, i64, i64, i64, i64, i64, i64, i64 }
%struct.Fra_Bmc_t_ = type { i32, i32, i32, ptr, ptr, ptr, ptr, ptr, ptr }

; Function Attrs: inlinehint nounwind uwtable
define internal ptr @Bmc_ObjFraig(ptr noundef %0) #2 {
  %2 = alloca ptr, align 8
  store ptr %0, ptr %2, align 8, !tbaa !3
  %3 = load ptr, ptr %2, align 8, !tbaa !3
  %4 = getelementptr inbounds nuw %struct.Aig_Obj_t_, ptr %3, i32 0, i32 6
  %5 = load ptr, ptr %4, align 8, !tbaa !8
  %6 = getelementptr inbounds nuw %struct.Fra_Man_t_, ptr %5, i32 0, i32 8
  %7 = load ptr, ptr %6, align 8, !tbaa !11
  %8 = getelementptr inbounds nuw %struct.Fra_Bmc_t_, ptr %7, i32 0, i32 8
  %9 = load ptr, ptr %8, align 8, !tbaa !35
  %10 = load ptr, ptr %2, align 8, !tbaa !3
  %11 = getelementptr inbounds nuw %struct.Aig_Obj_t_, ptr %10, i32 0, i32 5
  %12 = load i32, ptr %11, align 4, !tbaa !33
  %13 = sext i32 %12 to i64
  %14 = getelementptr inbounds ptr, ptr %9, i64 %13
  %15 = load ptr, ptr %14, align 8, !tbaa !3
  ret ptr %15
}

; Function Attrs: inlinehint nounwind uwtable
define internal ptr @Aig_Regular(ptr noundef %0) #2 {
  %2 = alloca ptr, align 8
  store ptr %0, ptr %2, align 8, !tbaa !3
  %3 = load ptr, ptr %2, align 8, !tbaa !3
  %4 = ptrtoint ptr %3 to i64
  %5 = and i64 %4, -2
  %6 = inttoptr i64 %5 to ptr
  ret ptr %6
}

; Function Attrs: inlinehint nounwind uwtable
define internal ptr @Bmc_ObjFrames(ptr noundef %0, i32 noundef %1) #2 {
  %3 = alloca ptr, align 8
  %4 = alloca i32, align 4
  store ptr %0, ptr %3, align 8, !tbaa !3
  store i32 %1, ptr %4, align 4, !tbaa !28
  %5 = load ptr, ptr %3, align 8, !tbaa !3
  %6 = getelementptr inbounds nuw %struct.Aig_Obj_t_, ptr %5, i32 0, i32 6
  %7 = load ptr, ptr %6, align 8, !tbaa !8
  %8 = getelementptr inbounds nuw %struct.Fra_Man_t_, ptr %7, i32 0, i32 8
  %9 = load ptr, ptr %8, align 8, !tbaa !11
  %10 = getelementptr inbounds nuw %struct.Fra_Bmc_t_, ptr %9, i32 0, i32 7
  %11 = load ptr, ptr %10, align 8, !tbaa !32
  %12 = load ptr, ptr %3, align 8, !tbaa !3
  %13 = getelementptr inbounds nuw %struct.Aig_Obj_t_, ptr %12, i32 0, i32 6
  %14 = load ptr, ptr %13, align 8, !tbaa !8
  %15 = getelementptr inbounds nuw %struct.Fra_Man_t_, ptr %14, i32 0, i32 8
  %16 = load ptr, ptr %15, align 8, !tbaa !11
  %17 = getelementptr inbounds nuw %struct.Fra_Bmc_t_, ptr %16, i32 0, i32 2
  %18 = load i32, ptr %17, align 8, !tbaa !29
  %19 = load ptr, ptr %3, align 8, !tbaa !3
  %20 = getelementptr inbounds nuw %struct.Aig_Obj_t_, ptr %19, i32 0, i32 5
  %21 = load i32, ptr %20, align 4, !tbaa !33
  %22 = mul nsw i32 %18, %21
  %23 = load i32, ptr %4, align 4, !tbaa !28
  %24 = add nsw i32 %22, %23
  %25 = sext i32 %24 to i64
  %26 = getelementptr inbounds ptr, ptr %11, i64 %25
  %27 = load ptr, ptr %26, align 8, !tbaa !3
  ret ptr %27
}

; Function Attrs: nounwind uwtable
define i32 @Fra_BmcNodesAreEqual(ptr noundef %0, ptr noundef %1) #0 {
  %3 = alloca i32, align 4
  %4 = alloca ptr, align 8
  %5 = alloca ptr, align 8
  %6 = alloca ptr, align 8
  %7 = alloca ptr, align 8
  %8 = alloca ptr, align 8
  %9 = alloca ptr, align 8
  %10 = alloca ptr, align 8
  %11 = alloca i32, align 4
  %12 = alloca i32, align 4
  store ptr %0, ptr %4, align 8, !tbaa !3
  store ptr %1, ptr %5, align 8, !tbaa !3
  call void @llvm.lifetime.start.p0(i64 8, ptr %6) #9
  %13 = load ptr, ptr %4, align 8, !tbaa !3
  %14 = getelementptr inbounds nuw %struct.Aig_Obj_t_, ptr %13, i32 0, i32 6
  %15 = load ptr, ptr %14, align 8, !tbaa !8
  store ptr %15, ptr %6, align 8, !tbaa !9
  call void @llvm.lifetime.start.p0(i64 8, ptr %7) #9
  call void @llvm.lifetime.start.p0(i64 8, ptr %8) #9
  call void @llvm.lifetime.start.p0(i64 8, ptr %9) #9
  call void @llvm.lifetime.start.p0(i64 8, ptr %10) #9
  call void @llvm.lifetime.start.p0(i64 4, ptr %11) #9
  %16 = load ptr, ptr %6, align 8, !tbaa !9
  %17 = getelementptr inbounds nuw %struct.Fra_Man_t_, ptr %16, i32 0, i32 8
  %18 = load ptr, ptr %17, align 8, !tbaa !11
  %19 = getelementptr inbounds nuw %struct.Fra_Bmc_t_, ptr %18, i32 0, i32 0
  %20 = load i32, ptr %19, align 8, !tbaa !26
  store i32 %20, ptr %11, align 4, !tbaa !28
  br label %21

21:                                               ; preds = %54, %2
  %22 = load i32, ptr %11, align 4, !tbaa !28
  %23 = load ptr, ptr %6, align 8, !tbaa !9
  %24 = getelementptr inbounds nuw %struct.Fra_Man_t_, ptr %23, i32 0, i32 8
  %25 = load ptr, ptr %24, align 8, !tbaa !11
  %26 = getelementptr inbounds nuw %struct.Fra_Bmc_t_, ptr %25, i32 0, i32 2
  %27 = load i32, ptr %26, align 8, !tbaa !29
  %28 = icmp slt i32 %22, %27
  br i1 %28, label %29, label %57

29:                                               ; preds = %21
  %30 = load ptr, ptr %4, align 8, !tbaa !3
  %31 = load i32, ptr %11, align 4, !tbaa !28
  %32 = call ptr @Bmc_ObjFrames(ptr noundef %30, i32 noundef %31)
  %33 = call ptr @Aig_Regular(ptr noundef %32)
  store ptr %33, ptr %7, align 8, !tbaa !3
  %34 = load ptr, ptr %5, align 8, !tbaa !3
  %35 = load i32, ptr %11, align 4, !tbaa !28
  %36 = call ptr @Bmc_ObjFrames(ptr noundef %34, i32 noundef %35)
  %37 = call ptr @Aig_Regular(ptr noundef %36)
  store ptr %37, ptr %8, align 8, !tbaa !3
  %38 = load ptr, ptr %7, align 8, !tbaa !3
  %39 = load ptr, ptr %8, align 8, !tbaa !3
  %40 = icmp eq ptr %38, %39
  br i1 %40, label %41, label %42

41:                                               ; preds = %29
  br label %54

42:                                               ; preds = %29
  %43 = load ptr, ptr %7, align 8, !tbaa !3
  %44 = call ptr @Bmc_ObjFraig(ptr noundef %43)
  %45 = call ptr @Aig_Regular(ptr noundef %44)
  store ptr %45, ptr %9, align 8, !tbaa !3
  %46 = load ptr, ptr %8, align 8, !tbaa !3
  %47 = call ptr @Bmc_ObjFraig(ptr noundef %46)
  %48 = call ptr @Aig_Regular(ptr noundef %47)
  store ptr %48, ptr %10, align 8, !tbaa !3
  %49 = load ptr, ptr %9, align 8, !tbaa !3
  %50 = load ptr, ptr %10, align 8, !tbaa !3
  %51 = icmp ne ptr %49, %50
  br i1 %51, label %52, label %53

52:                                               ; preds = %42
  store i32 0, ptr %3, align 4
  store i32 1, ptr %12, align 4
  br label %58

53:                                               ; preds = %42
  br label %54

54:                                               ; preds = %53, %41
  %55 = load i32, ptr %11, align 4, !tbaa !28
  %56 = add nsw i32 %55, 1
  store i32 %56, ptr %11, align 4, !tbaa !28
  br label %21, !llvm.loop !30

57:                                               ; preds = %21
  store i32 1, ptr %3, align 4
  store i32 1, ptr %12, align 4
  br label %58

58:                                               ; preds = %57, %52
  call void @llvm.lifetime.end.p0(i64 4, ptr %11) #9
  call void @llvm.lifetime.end.p0(i64 8, ptr %10) #9
  call void @llvm.lifetime.end.p0(i64 8, ptr %9) #9
  call void @llvm.lifetime.end.p0(i64 8, ptr %8) #9
  call void @llvm.lifetime.end.p0(i64 8, ptr %7) #9
  call void @llvm.lifetime.end.p0(i64 8, ptr %6) #9
  %59 = load i32, ptr %3, align 4
  ret i32 %59
}