; Function Attrs: nofree norecurse nosync nounwind memory(read, inaccessiblemem: none) uwtable
define range(i32 0, 2) i32 @Fra_BmcNodesAreEqual(ptr noundef readonly captures(none) %0, ptr noundef readonly captures(none) %1) #0 {
  %3 = getelementptr inbounds nuw i8, ptr %0, i64 40
  %4 = load ptr, ptr %3, align 8, !tbaa !3
  %5 = getelementptr inbounds nuw i8, ptr %4, i64 64
  %6 = load ptr, ptr %5, align 8, !tbaa !6
  %7 = load i32, ptr %6, align 8, !tbaa !22
  %8 = getelementptr inbounds nuw i8, ptr %6, i64 8
  %9 = load i32, ptr %8, align 8, !tbaa !24
  %10 = icmp slt i32 %7, %9
  br i1 %10, label %.lr.ph, label %._crit_edge

.lr.ph:                                           ; preds = %2
  %11 = getelementptr i8, ptr %0, i64 36
  %.val = load i32, ptr %11, align 4, !tbaa !25
  %12 = getelementptr i8, ptr %6, i64 48
  %.val18.val.val21 = load ptr, ptr %12, align 8, !tbaa !28
  %13 = mul nsw i32 %.val, %9
  %14 = getelementptr i8, ptr %1, i64 36
  %.val19 = load i32, ptr %14, align 4, !tbaa !25
  %15 = getelementptr i8, ptr %1, i64 40
  %.val20 = load ptr, ptr %15, align 8, !tbaa !3
  %16 = getelementptr i8, ptr %.val20, i64 64
  %.val20.val = load ptr, ptr %16, align 8, !tbaa !6
  %17 = getelementptr i8, ptr %.val20.val, i64 8
  %.val20.val.val = load i32, ptr %17, align 8, !tbaa !24
  %18 = getelementptr i8, ptr %.val20.val, i64 48
  %.val20.val.val22 = load ptr, ptr %18, align 8, !tbaa !28
  %19 = mul nsw i32 %.val20.val.val, %.val19
  %20 = sext i32 %7 to i64
  %21 = sext i32 %19 to i64
  %22 = sext i32 %13 to i64
  %invariant.gep = getelementptr ptr, ptr %.val18.val.val21, i64 %22
  %invariant.gep31 = getelementptr ptr, ptr %.val20.val.val22, i64 %21
  br label %23

23:                                               ; preds = %.lr.ph, %51
  %indvars.iv = phi i64 [ %20, %.lr.ph ], [ %indvars.iv.next, %51 ]
  %gep = getelementptr ptr, ptr %invariant.gep, i64 %indvars.iv
  %24 = load ptr, ptr %gep, align 8, !tbaa !29
  %25 = ptrtoint ptr %24 to i64
  %26 = and i64 %25, -2
  %gep32 = getelementptr ptr, ptr %invariant.gep31, i64 %indvars.iv
  %27 = load ptr, ptr %gep32, align 8, !tbaa !29
  %28 = ptrtoint ptr %27 to i64
  %29 = and i64 %28, -2
  %30 = icmp eq i64 %26, %29
  br i1 %30, label %51, label %31

31:                                               ; preds = %23
  %32 = inttoptr i64 %29 to ptr
  %33 = inttoptr i64 %26 to ptr
  %34 = getelementptr i8, ptr %33, i64 36
  %.val23 = load i32, ptr %34, align 4, !tbaa !25
  %35 = getelementptr i8, ptr %33, i64 40
  %.val24 = load ptr, ptr %35, align 8, !tbaa !3
  %36 = getelementptr i8, ptr %.val24, i64 64
  %.val24.val = load ptr, ptr %36, align 8, !tbaa !6
  %37 = getelementptr i8, ptr %.val24.val, i64 56
  %.val24.val.val = load ptr, ptr %37, align 8, !tbaa !30
  %38 = sext i32 %.val23 to i64
  %39 = getelementptr inbounds ptr, ptr %.val24.val.val, i64 %38
  %40 = load ptr, ptr %39, align 8, !tbaa !29
  %41 = ptrtoint ptr %40 to i64
  %42 = getelementptr i8, ptr %32, i64 36
  %.val25 = load i32, ptr %42, align 4, !tbaa !25
  %43 = getelementptr i8, ptr %32, i64 40
  %.val26 = load ptr, ptr %43, align 8, !tbaa !3
  %44 = getelementptr i8, ptr %.val26, i64 64
  %.val26.val = load ptr, ptr %44, align 8, !tbaa !6
  %45 = getelementptr i8, ptr %.val26.val, i64 56
  %.val26.val.val = load ptr, ptr %45, align 8, !tbaa !30
  %46 = sext i32 %.val25 to i64
  %47 = getelementptr inbounds ptr, ptr %.val26.val.val, i64 %46
  %48 = load ptr, ptr %47, align 8, !tbaa !29
  %49 = ptrtoint ptr %48 to i64
  %50 = xor i64 %49, %41
  %.not = icmp ult i64 %50, 2
  br i1 %.not, label %51, label %._crit_edge

51:                                               ; preds = %31, %23
  %indvars.iv.next = add nsw i64 %indvars.iv, 1
  %lftr.wideiv = trunc i64 %indvars.iv.next to i32
  %exitcond.not = icmp eq i32 %9, %lftr.wideiv
  br i1 %exitcond.not, label %._crit_edge, label %23, !llvm.loop !31

._crit_edge:                                      ; preds = %31, %51, %2
  %.015 = phi i32 [ 1, %2 ], [ 1, %51 ], [ 0, %31 ]
  ret i32 %.015
}